target datalayout = "e-m:e-p270:32:32-p271:32:32-p272:64:64-i64:64-i128:128-f80:128-n8:16:32:64-S128"
target triple = "x86_64-pc-linux-gnu"

@accumulate.zero = internal constant [4 x float] zeroinitializer, align 16

; Function Attrs: alwaysinline nounwind uwtable
define internal <4 x float> @_mm_max_ps(<4 x float> noundef %0, <4 x float> noundef %1) #5 {
  %3 = alloca <4 x float>, align 16
  %4 = alloca <4 x float>, align 16
  store <4 x float> %0, ptr %3, align 16, !tbaa !17
  store <4 x float> %1, ptr %4, align 16, !tbaa !17
  %5 = load <4 x float>, ptr %3, align 16, !tbaa !17
  %6 = load <4 x float>, ptr %4, align 16, !tbaa !17
  %7 = call reassoc nsz arcp contract afn <4 x float> @llvm.x86.sse.max.ps(<4 x float> %5, <4 x float> %6)
  ret <4 x float> %7
}

; Function Attrs: alwaysinline nounwind uwtable
define internal <4 x float> @_mm_min_ps(<4 x float> noundef %0, <4 x float> noundef %1) #5 {
  %3 = alloca <4 x float>, align 16
  %4 = alloca <4 x float>, align 16
  store <4 x float> %0, ptr %3, align 16, !tbaa !17
  store <4 x float> %1, ptr %4, align 16, !tbaa !17
  %5 = load <4 x float>, ptr %3, align 16, !tbaa !17
  %6 = load <4 x float>, ptr %4, align 16, !tbaa !17
  %7 = call reassoc nsz arcp contract afn <4 x float> @llvm.x86.sse.min.ps(<4 x float> %5, <4 x float> %6)
  ret <4 x float> %7
}

; Function Attrs: inlinehint nounwind uwtable
define internal void @dt_vector_max(ptr noundef %0, ptr noundef %1, ptr noundef %2) #4 {
  %4 = alloca ptr, align 8
  %5 = alloca ptr, align 8
  %6 = alloca ptr, align 8
  store ptr %0, ptr %4, align 8, !tbaa !6
  store ptr %1, ptr %5, align 8, !tbaa !6
  store ptr %2, ptr %6, align 8, !tbaa !6
  %7 = load ptr, ptr %5, align 8, !tbaa !6
  %8 = load <4 x float>, ptr %7, align 16, !tbaa !17
  %9 = load ptr, ptr %6, align 8, !tbaa !6
  %10 = load <4 x float>, ptr %9, align 16, !tbaa !17
  %11 = call reassoc nsz arcp contract afn <4 x float> @_mm_max_ps(<4 x float> noundef %8, <4 x float> noundef %10)
  %12 = load ptr, ptr %4, align 8, !tbaa !6
  store <4 x float> %11, ptr %12, align 16, !tbaa !17
  ret void
}

; Function Attrs: inlinehint nounwind uwtable
define internal void @dt_vector_min(ptr noundef %0, ptr noundef %1, ptr noundef %2) #4 {
  %4 = alloca ptr, align 8
  %5 = alloca ptr, align 8
  %6 = alloca ptr, align 8
  store ptr %0, ptr %4, align 8, !tbaa !6
  store ptr %1, ptr %5, align 8, !tbaa !6
  store ptr %2, ptr %6, align 8, !tbaa !6
  %7 = load ptr, ptr %5, align 8, !tbaa !6
  %8 = load <4 x float>, ptr %7, align 16, !tbaa !17
  %9 = load ptr, ptr %6, align 8, !tbaa !6
  %10 = load <4 x float>, ptr %9, align 16, !tbaa !17
  %11 = call reassoc nsz arcp contract afn <4 x float> @_mm_min_ps(<4 x float> noundef %8, <4 x float> noundef %10)
  %12 = load ptr, ptr %4, align 8, !tbaa !6
  store <4 x float> %11, ptr %12, align 16, !tbaa !17
  ret void
}

; Function Attrs: inlinehint nounwind uwtable
define internal void @dt_sfence() #2 {
  call void @llvm.x86.sse.sfence()
  ret void
}

; Function Attrs: inlinehint nounwind uwtable
define internal void @accumulate(ptr noundef %0, ptr noundef %1, ptr noundef %2, ptr noundef %3) #2 {
  %5 = alloca ptr, align 8
  %6 = alloca ptr, align 8
  %7 = alloca ptr, align 8
  %8 = alloca ptr, align 8
  %9 = alloca [4 x float], align 16
  %10 = alloca [4 x float], align 16
  %11 = alloca i64, align 8
  %12 = alloca [4 x float], align 16
  %13 = alloca i64, align 8
  %14 = alloca i64, align 8
  store ptr %0, ptr %5, align 8, !tbaa !6
  store ptr %1, ptr %6, align 8, !tbaa !6
  store ptr %2, ptr %7, align 8, !tbaa !6
  store ptr %3, ptr %8, align 8, !tbaa !6
  call void @llvm.lifetime.start.p0(i64 16, ptr %9) #7
  call void @llvm.lifetime.start.p0(i64 16, ptr %10) #7
  call void @llvm.lifetime.start.p0(i64 8, ptr %11) #7
  store i64 0, ptr %11, align 8, !tbaa !15
  br label %15

15:                                               ; preds = %42, %4
  %16 = load i64, ptr %11, align 8, !tbaa !15
  %17 = icmp ult i64 %16, 4
  br i1 %17, label %19, label %18

18:                                               ; preds = %15
  call void @llvm.lifetime.end.p0(i64 8, ptr %11) #7
  br label %45

19:                                               ; preds = %15
  %20 = load ptr, ptr %6, align 8, !tbaa !6
  %21 = load i64, ptr %11, align 8, !tbaa !15
  %22 = getelementptr inbounds nuw float, ptr %20, i64 %21
  %23 = load float, ptr %22, align 4, !tbaa !13
  %24 = load ptr, ptr %7, align 8, !tbaa !6
  %25 = load i64, ptr %11, align 8, !tbaa !15
  %26 = getelementptr inbounds nuw float, ptr %24, i64 %25
  %27 = load float, ptr %26, align 4, !tbaa !13
  %28 = fadd reassoc nsz arcp contract afn float %23, %27
  %29 = load i64, ptr %11, align 8, !tbaa !15
  %30 = getelementptr inbounds nuw [4 x float], ptr %9, i64 0, i64 %29
  store float %28, ptr %30, align 4, !tbaa !13
  %31 = load ptr, ptr %6, align 8, !tbaa !6
  %32 = load i64, ptr %11, align 8, !tbaa !15
  %33 = getelementptr inbounds nuw float, ptr %31, i64 %32
  %34 = load float, ptr %33, align 4, !tbaa !13
  %35 = load ptr, ptr %7, align 8, !tbaa !6
  %36 = load i64, ptr %11, align 8, !tbaa !15
  %37 = getelementptr inbounds nuw float, ptr %35, i64 %36
  %38 = load float, ptr %37, align 4, !tbaa !13
  %39 = fsub reassoc nsz arcp contract afn float %34, %38
  %40 = load i64, ptr %11, align 8, !tbaa !15
  %41 = getelementptr inbounds nuw [4 x float], ptr %10, i64 0, i64 %40
  store float %39, ptr %41, align 4, !tbaa !13
  br label %42

42:                                               ; preds = %19
  %43 = load i64, ptr %11, align 8, !tbaa !15
  %44 = add i64 %43, 1
  store i64 %44, ptr %11, align 8, !tbaa !15
  br label %15

45:                                               ; preds = %18
  %46 = getelementptr inbounds [4 x float], ptr %9, i64 0, i64 0
  %47 = getelementptr inbounds [4 x float], ptr %9, i64 0, i64 0
  call void @dt_vector_min(ptr noundef %46, ptr noundef %47, ptr noundef @accumulate.zero)
  %48 = getelementptr inbounds [4 x float], ptr %10, i64 0, i64 0
  %49 = getelementptr inbounds [4 x float], ptr %10, i64 0, i64 0
  call void @dt_vector_max(ptr noundef %48, ptr noundef %49, ptr noundef @accumulate.zero)
  call void @llvm.lifetime.start.p0(i64 16, ptr %12) #7
  call void @llvm.lifetime.start.p0(i64 8, ptr %13) #7
  store i64 0, ptr %13, align 8, !tbaa !15
  br label %50

50:                                               ; preds = %64, %45
  %51 = load i64, ptr %13, align 8, !tbaa !15
  %52 = icmp ult i64 %51, 4
  br i1 %52, label %54, label %53

53:                                               ; preds = %50
  call void @llvm.lifetime.end.p0(i64 8, ptr %13) #7
  br label %67

54:                                               ; preds = %50
  %55 = load i64, ptr %13, align 8, !tbaa !15
  %56 = getelementptr inbounds nuw [4 x float], ptr %9, i64 0, i64 %55
  %57 = load float, ptr %56, align 4, !tbaa !13
  %58 = load i64, ptr %13, align 8, !tbaa !15
  %59 = getelementptr inbounds nuw [4 x float], ptr %10, i64 0, i64 %58
  %60 = load float, ptr %59, align 4, !tbaa !13
  %61 = fadd reassoc nsz arcp contract afn float %57, %60
  %62 = load i64, ptr %13, align 8, !tbaa !15
  %63 = getelementptr inbounds nuw [4 x float], ptr %12, i64 0, i64 %62
  store float %61, ptr %63, align 4, !tbaa !13
  br label %64

64:                                               ; preds = %54
  %65 = load i64, ptr %13, align 8, !tbaa !15
  %66 = add i64 %65, 1
  store i64 %66, ptr %13, align 8, !tbaa !15
  br label %50

67:                                               ; preds = %53
  call void @llvm.lifetime.start.p0(i64 8, ptr %14) #7
  store i64 0, ptr %14, align 8, !tbaa !15
  br label %68

68:                                               ; preds = %86, %67
  %69 = load i64, ptr %14, align 8, !tbaa !15
  %70 = icmp ult i64 %69, 4
  br i1 %70, label %72, label %71

71:                                               ; preds = %68
  call void @llvm.lifetime.end.p0(i64 8, ptr %14) #7
  br label %89

72:                                               ; preds = %68
  %73 = load ptr, ptr %8, align 8, !tbaa !6
  %74 = load i64, ptr %14, align 8, !tbaa !15
  %75 = getelementptr inbounds nuw float, ptr %73, i64 %74
  %76 = load float, ptr %75, align 4, !tbaa !13
  %77 = load i64, ptr %14, align 8, !tbaa !15
  %78 = getelementptr inbounds nuw [4 x float], ptr %12, i64 0, i64 %77
  %79 = load float, ptr %78, align 4, !tbaa !13
  %80 = fmul reassoc nsz arcp contract afn float %76, %79
  %81 = load ptr, ptr %5, align 8, !tbaa !6
  %82 = load i64, ptr %14, align 8, !tbaa !15
  %83 = getelementptr inbounds nuw float, ptr %81, i64 %82
  %84 = load float, ptr %83, align 4, !tbaa !13
  %85 = fadd reassoc nsz arcp contract afn float %84, %80
  store float %85, ptr %83, align 4, !tbaa !13
  br label %86

86:                                               ; preds = %72
  %87 = load i64, ptr %14, align 8, !tbaa !15
  %88 = add i64 %87, 1
  store i64 %88, ptr %14, align 8, !tbaa !15
  br label %68

89:                                               ; preds = %71
  call void @llvm.lifetime.end.p0(i64 16, ptr %12) #7
  call void @llvm.lifetime.end.p0(i64 16, ptr %10) #7
  call void @llvm.lifetime.end.p0(i64 16, ptr %9) #7
  ret void
}

; Function Attrs: nounwind uwtable
define void @eaw_synthesize(ptr noundef %0, ptr noundef %1, ptr noalias noundef %2, ptr noalias noundef %3, ptr noalias noundef %4, i32 noundef %5, i32 noundef %6) #0 {
  %8 = alloca ptr, align 8
  %9 = alloca ptr, align 8
  %10 = alloca ptr, align 8
  %11 = alloca ptr, align 8
  %12 = alloca ptr, align 8
  %13 = alloca i32, align 4
  %14 = alloca i32, align 4
  %15 = alloca [4 x float], align 16
  %16 = alloca [4 x float], align 16
  %17 = alloca i64, align 8
  %18 = alloca i64, align 8
  store ptr %0, ptr %8, align 8, !tbaa !6
  store ptr %1, ptr %9, align 8, !tbaa !6
  store ptr %2, ptr %10, align 8, !tbaa !6
  store ptr %3, ptr %11, align 8, !tbaa !6
  store ptr %4, ptr %12, align 8, !tbaa !6
  store i32 %5, ptr %13, align 4, !tbaa !11
  store i32 %6, ptr %14, align 4, !tbaa !11
  call void @llvm.lifetime.start.p0(i64 16, ptr %15) #7
  %19 = load ptr, ptr %11, align 8, !tbaa !6
  %20 = getelementptr inbounds float, ptr %19, i64 0
  %21 = load float, ptr %20, align 4, !tbaa !13
  store float %21, ptr %15, align 4, !tbaa !13
  %22 = getelementptr inbounds float, ptr %15, i64 1
  %23 = load ptr, ptr %11, align 8, !tbaa !6
  %24 = getelementptr inbounds float, ptr %23, i64 1
  %25 = load float, ptr %24, align 4, !tbaa !13
  store float %25, ptr %22, align 4, !tbaa !13
  %26 = getelementptr inbounds float, ptr %15, i64 2
  %27 = load ptr, ptr %11, align 8, !tbaa !6
  %28 = getelementptr inbounds float, ptr %27, i64 2
  %29 = load float, ptr %28, align 4, !tbaa !13
  store float %29, ptr %26, align 4, !tbaa !13
  %30 = getelementptr inbounds float, ptr %15, i64 3
  %31 = load ptr, ptr %11, align 8, !tbaa !6
  %32 = getelementptr inbounds float, ptr %31, i64 3
  %33 = load float, ptr %32, align 4, !tbaa !13
  store float %33, ptr %30, align 4, !tbaa !13
  call void @llvm.lifetime.start.p0(i64 16, ptr %16) #7
  %34 = load ptr, ptr %12, align 8, !tbaa !6
  %35 = getelementptr inbounds float, ptr %34, i64 0
  %36 = load float, ptr %35, align 4, !tbaa !13
  store float %36, ptr %16, align 4, !tbaa !13
  %37 = getelementptr inbounds float, ptr %16, i64 1
  %38 = load ptr, ptr %12, align 8, !tbaa !6
  %39 = getelementptr inbounds float, ptr %38, i64 1
  %40 = load float, ptr %39, align 4, !tbaa !13
  store float %40, ptr %37, align 4, !tbaa !13
  %41 = getelementptr inbounds float, ptr %16, i64 2
  %42 = load ptr, ptr %12, align 8, !tbaa !6
  %43 = getelementptr inbounds float, ptr %42, i64 2
  %44 = load float, ptr %43, align 4, !tbaa !13
  store float %44, ptr %41, align 4, !tbaa !13
  %45 = getelementptr inbounds float, ptr %16, i64 3
  %46 = load ptr, ptr %12, align 8, !tbaa !6
  %47 = getelementptr inbounds float, ptr %46, i64 3
  %48 = load float, ptr %47, align 4, !tbaa !13
  store float %48, ptr %45, align 4, !tbaa !13
  call void @llvm.lifetime.start.p0(i64 8, ptr %17) #7
  %49 = load i32, ptr %13, align 4, !tbaa !11
  %50 = sext i32 %49 to i64
  %51 = load i32, ptr %14, align 4, !tbaa !11
  %52 = sext i32 %51 to i64
  %53 = mul i64 %50, %52
  store i64 %53, ptr %17, align 8, !tbaa !15
  call void @llvm.lifetime.start.p0(i64 8, ptr %18) #7
  store i64 0, ptr %18, align 8, !tbaa !15
  br label %54

54:                                               ; preds = %70, %7
  %55 = load i64, ptr %18, align 8, !tbaa !15
  %56 = load i64, ptr %17, align 8, !tbaa !15
  %57 = icmp ult i64 %55, %56
  br i1 %57, label %59, label %58

58:                                               ; preds = %54
  call void @llvm.lifetime.end.p0(i64 8, ptr %18) #7
  br label %73

59:                                               ; preds = %54
  %60 = load ptr, ptr %8, align 8, !tbaa !6
  %61 = load i64, ptr %18, align 8, !tbaa !15
  %62 = mul i64 4, %61
  %63 = getelementptr inbounds nuw float, ptr %60, i64 %62
  %64 = load ptr, ptr %10, align 8, !tbaa !6
  %65 = load i64, ptr %18, align 8, !tbaa !15
  %66 = mul i64 4, %65
  %67 = getelementptr inbounds nuw float, ptr %64, i64 %66
  %68 = getelementptr inbounds [4 x float], ptr %15, i64 0, i64 0
  %69 = getelementptr inbounds [4 x float], ptr %16, i64 0, i64 0
  call void @accumulate(ptr noundef %63, ptr noundef %67, ptr noundef %68, ptr noundef %69)
  br label %70

70:                                               ; preds = %59
  %71 = load i64, ptr %18, align 8, !tbaa !15
  %72 = add i64 %71, 1
  store i64 %72, ptr %18, align 8, !tbaa !15
  br label %54

73:                                               ; preds = %58
  call void @dt_sfence()
  call void @llvm.lifetime.end.p0(i64 8, ptr %17) #7
  call void @llvm.lifetime.end.p0(i64 16, ptr %16) #7
  call void @llvm.lifetime.end.p0(i64 16, ptr %15) #7
  ret void
}