; Function Attrs: nounwind uwtable
define void @eaw_synthesize(ptr noundef captures(none) %0, ptr noundef readnone captures(none) %1, ptr noalias noundef readonly captures(none) %2, ptr noalias noundef readonly captures(none) %3, ptr noalias noundef readonly captures(none) %4, i32 noundef %5, i32 noundef %6) local_unnamed_addr #3 {
  %8 = alloca [4 x float], align 16
  %9 = alloca [4 x float], align 16
  %10 = alloca [4 x float], align 16
  %11 = alloca [4 x float], align 16
  %12 = alloca [4 x float], align 16
  call void @llvm.lifetime.start.p0(i64 16, ptr nonnull %11) #5
  %13 = load float, ptr %3, align 4, !tbaa !6
  store float %13, ptr %11, align 16, !tbaa !6
  %14 = getelementptr inbounds nuw i8, ptr %11, i64 4
  %15 = getelementptr inbounds nuw i8, ptr %3, i64 4
  %16 = load float, ptr %15, align 4, !tbaa !6
  store float %16, ptr %14, align 4, !tbaa !6
  %17 = getelementptr inbounds nuw i8, ptr %11, i64 8
  %18 = getelementptr inbounds nuw i8, ptr %3, i64 8
  %19 = load float, ptr %18, align 4, !tbaa !6
  store float %19, ptr %17, align 8, !tbaa !6
  %20 = getelementptr inbounds nuw i8, ptr %11, i64 12
  %21 = getelementptr inbounds nuw i8, ptr %3, i64 12
  %22 = load float, ptr %21, align 4, !tbaa !6
  store float %22, ptr %20, align 4, !tbaa !6
  call void @llvm.lifetime.start.p0(i64 16, ptr nonnull %12) #5
  %23 = load float, ptr %4, align 4, !tbaa !6
  store float %23, ptr %12, align 16, !tbaa !6
  %24 = getelementptr inbounds nuw i8, ptr %12, i64 4
  %25 = getelementptr inbounds nuw i8, ptr %4, i64 4
  %26 = load float, ptr %25, align 4, !tbaa !6
  store float %26, ptr %24, align 4, !tbaa !6
  %27 = getelementptr inbounds nuw i8, ptr %12, i64 8
  %28 = getelementptr inbounds nuw i8, ptr %4, i64 8
  %29 = load float, ptr %28, align 4, !tbaa !6
  store float %29, ptr %27, align 8, !tbaa !6
  %30 = getelementptr inbounds nuw i8, ptr %12, i64 12
  %31 = getelementptr inbounds nuw i8, ptr %4, i64 12
  %32 = load float, ptr %31, align 4, !tbaa !6
  store float %32, ptr %30, align 4, !tbaa !6
  %33 = sext i32 %5 to i64
  %34 = sext i32 %6 to i64
  %35 = mul nsw i64 %34, %33
  %.not = icmp eq i64 %35, 0
  br i1 %.not, label %._crit_edge, label %.lr.ph

._crit_edge:                                      ; preds = %accumulate.exit, %7
  tail call void @llvm.x86.sse.sfence()
  call void @llvm.lifetime.end.p0(i64 16, ptr nonnull %12) #5
  call void @llvm.lifetime.end.p0(i64 16, ptr nonnull %11) #5
  ret void

.lr.ph:                                           ; preds = %7, %accumulate.exit
  %.016 = phi i64 [ %69, %accumulate.exit ], [ 0, %7 ]
  %36 = shl i64 %.016, 2
  %37 = getelementptr inbounds nuw float, ptr %2, i64 %36
  call void @llvm.lifetime.start.p0(i64 16, ptr nonnull %8) #5
  call void @llvm.lifetime.start.p0(i64 16, ptr nonnull %9) #5
  br label %41

38:                                               ; preds = %41
  %.val.i = load <4 x float>, ptr %8, align 16, !tbaa !10
  %39 = tail call reassoc nsz arcp contract afn <4 x float> @llvm.x86.sse.min.ps(<4 x float> %.val.i, <4 x float> zeroinitializer)
  store <4 x float> %39, ptr %8, align 16, !tbaa !10
  %.val25.i = load <4 x float>, ptr %9, align 16, !tbaa !10
  %40 = tail call reassoc nsz arcp contract afn <4 x float> @llvm.x86.sse.max.ps(<4 x float> %.val25.i, <4 x float> zeroinitializer)
  store <4 x float> %40, ptr %9, align 16, !tbaa !10
  call void @llvm.lifetime.start.p0(i64 16, ptr nonnull %10) #5
  br label %51

41:                                               ; preds = %41, %.lr.ph
  %.02426.i = phi i64 [ 0, %.lr.ph ], [ %50, %41 ]
  %42 = getelementptr inbounds nuw float, ptr %37, i64 %.02426.i
  %43 = load float, ptr %42, align 4, !tbaa !6
  %44 = getelementptr inbounds nuw float, ptr %11, i64 %.02426.i
  %45 = load float, ptr %44, align 4, !tbaa !6
  %46 = fadd reassoc nsz arcp contract afn float %45, %43
  %47 = getelementptr inbounds nuw [4 x float], ptr %8, i64 0, i64 %.02426.i
  store float %46, ptr %47, align 4, !tbaa !6
  %48 = fsub reassoc nsz arcp contract afn float %43, %45
  %49 = getelementptr inbounds nuw [4 x float], ptr %9, i64 0, i64 %.02426.i
  store float %48, ptr %49, align 4, !tbaa !6
  %50 = add nuw nsw i64 %.02426.i, 1
  %exitcond.not.i = icmp eq i64 %50, 4
  br i1 %exitcond.not.i, label %38, label %41

51:                                               ; preds = %51, %38
  %.02327.i = phi i64 [ 0, %38 ], [ %58, %51 ]
  %52 = getelementptr inbounds nuw [4 x float], ptr %8, i64 0, i64 %.02327.i
  %53 = load float, ptr %52, align 4, !tbaa !6
  %54 = getelementptr inbounds nuw [4 x float], ptr %9, i64 0, i64 %.02327.i
  %55 = load float, ptr %54, align 4, !tbaa !6
  %56 = fadd reassoc nsz arcp contract afn float %55, %53
  %57 = getelementptr inbounds nuw [4 x float], ptr %10, i64 0, i64 %.02327.i
  store float %56, ptr %57, align 4, !tbaa !6
  %58 = add nuw nsw i64 %.02327.i, 1
  %exitcond29.not.i = icmp eq i64 %58, 4
  br i1 %exitcond29.not.i, label %.preheader.i.preheader, label %51

.preheader.i.preheader:                           ; preds = %51
  %59 = getelementptr inbounds nuw float, ptr %0, i64 %36
  br label %.preheader.i

.preheader.i:                                     ; preds = %.preheader.i.preheader, %.preheader.i
  %.028.i = phi i64 [ %68, %.preheader.i ], [ 0, %.preheader.i.preheader ]
  %60 = getelementptr inbounds nuw float, ptr %12, i64 %.028.i
  %61 = load float, ptr %60, align 4, !tbaa !6
  %62 = getelementptr inbounds nuw [4 x float], ptr %10, i64 0, i64 %.028.i
  %63 = load float, ptr %62, align 4, !tbaa !6
  %64 = fmul reassoc nsz arcp contract afn float %63, %61
  %65 = getelementptr inbounds nuw float, ptr %59, i64 %.028.i
  %66 = load float, ptr %65, align 4, !tbaa !6
  %67 = fadd reassoc nsz arcp contract afn float %66, %64
  store float %67, ptr %65, align 4, !tbaa !6
  %68 = add nuw nsw i64 %.028.i, 1
  %exitcond30.not.i = icmp eq i64 %68, 4
  br i1 %exitcond30.not.i, label %accumulate.exit, label %.preheader.i

accumulate.exit:                                  ; preds = %.preheader.i
  call void @llvm.lifetime.end.p0(i64 16, ptr nonnull %10) #5
  call void @llvm.lifetime.end.p0(i64 16, ptr nonnull %9) #5
  call void @llvm.lifetime.end.p0(i64 16, ptr nonnull %8) #5
  %69 = add nuw i64 %.016, 1
  %exitcond.not = icmp eq i64 %69, %35
  br i1 %exitcond.not, label %._crit_edge, label %.lr.ph
}